0000                    ;File generated by dasmZ80.jar Z80 disassembler from ..\src\test\resources\MemodyneM80.bin
0000
0000                    ;I/O Port definitions
0000            port03  EQU  03
0000            port09  EQU  09
0000            port10  EQU  10
0000            port11  EQU  11
0000            port12  EQU  12
0000
0000                    org 0x0000
0000 185D     lbl0000:  JR   lbl005F-$
0002 37                 SCF
0003 DDCB0EEE           SET  5,(IX+14)
0007 D7                 RST  0x10
0008 C1                 POP  BC
0009 37                 SCF
000A C9                 RET
000B
000B DDCB02F6           SET  6,(IX+2)
000F CF                 RST  0x08
0010 C1                 POP  BC
0011 F7                 RST  0x30
0012 C9                 RET
0013
0013 DD3648D8           LD   (IX+72),0xD8
0017 CF                 RST  0x08
0018 22541B             LD   (lbl1B54),HL
001B C9                 RET
001C
001C E7                 RST  0x20
001D CBEE               SET  5,(HL)
001F CF                 RST  0x08
0020 21031B             LD   HL,lbl1B03
0023 C9                 RET
0024
0024 E7                 RST  0x20
0025 CB86               RES  0,(HL)
0027 CF                 RST  0x08
0028 4E                 LD   C,(HL)
0029 061A               LD   B,0x1A
002B 34                 INC  (HL)
002C CBBE               RES  7,(HL)
002E C9                 RET
002F
002F DE13               SBC  A,0x13
0031 CBBB               RES  7,E
0033 C9                 RET
0034
0034 113204             LD   DE,lbl0432
0037 C9                 RET
0038
0038 DDCB0266           BIT  4,(IX+2)
003C 2806               JR   Z,lbl0044-$
003E CB21               SLA  C
0040 78                 LD   A,B
0041 EE04               XOR  0x04
0043 7F                 LD   A,A
0044 ED430D1B lbl0044:  LD   (lbl1B0D),BC
0048 C9                 RET
0049
0049 B7                 OR   A
004A ED42               SBC  HL,BC
004C 3004               JR   NC,lbl0052-$
004E 010002             LD   BC,lbl0200
0051 09                 ADD  HL,BC
0052 44       lbl0052:  LD   B,H
0053 4D                 LD   C,L
0054 2A541B   lbl0054:  LD   HL,(lbl1B54)
0057 B7                 OR   A
0058 C9                 RET
0059
0059 E7                 RST  0x20
005A 2B                 DEC  HL
005B CB56               BIT  2,(HL)
005D C0                 RET  NZ
005E
005E D7                 RST  0x10
005F 31001C   lbl005F:  LD   SP,lbl1C00
0062 ED5E               IM   2
0064 11001B             LD   DE,lbl1B00
0067 7A                 LD   A,D
0068 ED47               LD   I,A
006A D5                 PUSH DE
006B DDE1               POP  IX
006D 210003             LD   HL,lbl0300
0070 015400             LD   BC,lbl0054
0073 EDB0               LDIR
0075 AF                 XOR  A
0076 06AC               LD   B,0xAC
0078 12       lbl0078:  LD   (DE),A
0079 13                 INC  DE
007A 10FC               DJNZ lbl0078-$
007C 01080C             LD   BC,lbl0C08
007F 210F1B             LD   HL,lbl1B0F
0082 EDA3     lbl0082:  OUTI
0084 EDA3               OUTI
0086 0C                 INC  C
0087 10F9               DJNZ lbl0082-$
0089 CDF202             CALL lbl02F2
008C 01110C             LD   BC,lbl0C11
008F EDB3               OTIR
0091 E7       lbl0091:  RST  0x20
0092 23                 INC  HL
0093 F3                 DI
0094 CB7E               BIT  7,(HL)
0096 CBBE               RES  7,(HL)
0098 2A001B             LD   HL,(lbl1B00)
009B C47106             CALL NZ,lbl0671
009E FB                 EI
009F 18F0               JR   lbl0091-$
00A1 AF       lbl00A1:  XOR  A
00A2 2A501B             LD   HL,(lbl1B50)
00A5 ED5B561B           LD   DE,(lbl1B56)
00A9 ED52               SBC  HL,DE
00AB 281A               JR   Z,lbl00C7-$
00AD 1A                 LD   A,(DE)
00AE D310               OUT  (port10),A
00B0 13                 INC  DE
00B1 CB8A               RES  1,D
00B3 ED53561B           LD   (lbl1B56),DE
00B7 DD355D             DEC  (IX+93)
00BA 2818               JR   Z,lbl00D4-$
00BC B7                 OR   A
00BD F8                 RET  M
00BE
00BE DDBE07             CP   (IX+7)
00C1 C0                 RET  NZ
00C2
00C2 DD360AC7           LD   (IX+10),0xC7
00C6 C9                 RET
00C7
00C7 DDCB0546 lbl00C7:  BIT  0,(IX+5)
00CB 200C               JR   NZ,lbl00D9-$
00CD AF                 XOR  A
00CE D310               OUT  (port10),A
00D0 DD355D             DEC  (IX+93)
00D3 C0                 RET  NZ
00D4
00D4 DD360AD9 lbl00D4:  LD   (IX+10),0xD9
00D8 C9                 RET
00D9
00D9 DD360AE2 lbl00D9:  LD   (IX+10),0xE2
00DD 3E28               LD   A,0x28
00DF D311               OUT  (port11),A
00E1 C9                 RET
00E2
00E2 3EAA               LD   A,0xAA
00E4 D310               OUT  (port10),A
00E6 160A               LD   D,0x0A
00E8 DB11     lbl00E8:  IN   A,(port11)
00EA CB57               BIT  2,A
00EC 2003               JR   NZ,lbl00F1-$
00EE 15                 DEC  D
00EF 20F7               JR   NZ,lbl00E8-$
00F1 3E2D     lbl00F1:  LD   A,0x2D
00F3 D311               OUT  (port11),A
00F5 21291B             LD   HL,lbl1B29
00F8 7E                 LD   A,(HL)
00F9 E6EC               AND  0xEC
00FB D311               OUT  (port11),A
00FD 77                 LD   (HL),A
00FE C9                 RET
00FF
00FF 21661B   lbl00FF:  LD   HL,lbl1B66
0102 AF       lbl0102:  XOR  A
0103 77                 LD   (HL),A
0104 2B                 DEC  HL
0105 77                 LD   (HL),A
0106 0604               LD   B,0x04
0108 F7       lbl0108:  RST  0x30
0109 1A                 LD   A,(DE)
010A CD3201             CALL lbl0132
010D D8                 RET  C
010E
010E ED6F               RLD
0110 23                 INC  HL
0111 ED6F               RLD
0113 2B                 DEC  HL
0114 10F2               DJNZ lbl0108-$
0116 CF                 RST  0x08
0117 21011B             LD   HL,lbl1B01
011A DDCB04FE           SET  7,(IX+4)
011E 18E2               JR   lbl0102-$
0120 09                 ADD  HL,BC
0121 00                 NOP
0122 C0                 RET  NZ
0123
0123 05                 DEC  B
0124 8F                 ADC  A,A
0125 03                 INC  BC
0126 24                 INC  H
0127 00                 NOP
0128 9F                 SBC  A,A
0129 03                 INC  BC
012A CDFF00   lbl012A:  CALL lbl00FF
012D 7E                 LD   A,(HL)
012E 23                 INC  HL
012F 6E                 LD   L,(HL)
0130 77                 LD   (HL),A
0131 CF                 RST  0x08
0132 D630     lbl0132:  SUB  0x30
0134 D8                 RET  C
0135
0135 FE0A               CP   0x0A
0137 3F                 CCF
0138 F8                 RET  M
0139
0139 D607               SUB  0x07
013B FE0A               CP   0x0A
013D D8                 RET  C
013E
013E FE10               CP   0x10
0140 3F                 CCF
0141 C9                 RET
0142
0142 09                 ADD  HL,BC
0143 00                 NOP
0144 09                 ADD  HL,BC
0145 00                 NOP
0146 09                 ADD  HL,BC
0147 00                 NOP
0148 09                 ADD  HL,BC
0149 00                 NOP
014A 09                 ADD  HL,BC
014B 00                 NOP
014C CB02               RLC  D
014E 57                 LD   D,A
014F 04                 INC  B
0150 09                 ADD  HL,BC
0151 00                 NOP
0152 09                 ADD  HL,BC
0153 00                 NOP
0154 DF                 RST  0x18
0155 03                 INC  BC
0156 09                 ADD  HL,BC
0157 00                 NOP
0158 09                 ADD  HL,BC
0159 00                 NOP
015A 09                 ADD  HL,BC
015B 00                 NOP
015C 09                 ADD  HL,BC
015D 00                 NOP
015E 09                 ADD  HL,BC
015F 00                 NOP
0160 09                 ADD  HL,BC
0161 00                 NOP
0162 A7                 AND  A
0163 03                 INC  BC
0164 34                 INC  (HL)
0165 00                 NOP
0166 D203DA             JP   NC,lblDA03
0169 03                 INC  BC
016A C5                 PUSH BC
016B 03                 INC  BC
016C CA0309             JP   Z,lbl0903
016F 00                 NOP
0170 09                 ADD  HL,BC
0171 00                 NOP
0172 0B                 DEC  BC
0173 00                 NOP
0174 09                 ADD  HL,BC
0175 00                 NOP
0176 78                 LD   A,B
0177 02                 LD   (BC),A
0178 E0                 RET  PO
0179
0179 02                 LD   (BC),A
017A C0                 RET  NZ
017B
017B 02                 LD   (BC),A
017C 17                 RLA
017D 012A01             LD   BC,lbl012A
0180 09                 ADD  HL,BC
0181 00                 NOP
0182 49                 LD   C,C
0183 02                 LD   (BC),A
0184 13                 INC  DE
0185 00                 NOP
0186 5F                 LD   E,A
0187 02                 LD   (BC),A
0188 09                 ADD  HL,BC
0189 00                 NOP
018A 02                 LD   (BC),A
018B 00                 NOP
018C 1C                 INC  E
018D 00                 NOP
018E 09                 ADD  HL,BC
018F 00                 NOP
0190 09                 ADD  HL,BC
0191 00                 NOP
0192 E8                 RET  PE
0193
0193 03                 INC  BC
0194 09                 ADD  HL,BC
0195 00                 NOP
0196 09                 ADD  HL,BC
0197 00                 NOP
0198 09                 ADD  HL,BC
0199 00                 NOP
019A 09                 ADD  HL,BC
019B 00                 NOP
019C 09                 ADD  HL,BC
019D 00                 NOP
019E 09                 ADD  HL,BC
019F 00                 NOP
01A0 09                 ADD  HL,BC
01A1 00                 NOP
01A2 C0                 RET  NZ
01A3
01A3 05                 DEC  B
01A4 8F                 ADC  A,A
01A5 03                 INC  BC
01A6 24                 INC  H
01A7 00                 NOP
01A8 9F                 SBC  A,A
01A9 03                 INC  BC
01AA DD3608AF           LD   (IX+8),0xAF
01AE C9                 RET
01AF
01AF DD3608C5           LD   (IX+8),0xC5
01B3 325B1B             LD   (lbl1B5B),A
01B6 3E43               LD   A,0x43
01B8 D311               OUT  (port11),A
01BA 3EC9               LD   A,0xC9
01BC D311               OUT  (port11),A
01BE DDCB0466           BIT  4,(IX+4)
01C2 2023               JR   NZ,lbl01E7-$
01C4 C9                 RET
01C5
01C5 325C1B             LD   (lbl1B5C),A
01C8 DD3608CD           LD   (IX+8),0xCD
01CC C9                 RET
01CD
01CD 2A5B1B             LD   HL,(lbl1B5B)
01D0 45                 LD   B,L
01D1 6C                 LD   L,H
01D2 67                 LD   H,A
01D3 225B1B             LD   (lbl1B5B),HL
01D6 2A581B             LD   HL,(lbl1B58)
01D9 70                 LD   (HL),B
01DA 23                 INC  HL
01DB CB8C               RES  1,H
01DD 22581B             LD   (lbl1B58),HL
01E0 3A071B             LD   A,(lbl1B07)
01E3 B7                 OR   A
01E4 F8                 RET  M
01E5
01E5 B8                 CP   B
01E6 C0                 RET  NZ
01E7
01E7 DD3608EB lbl01E7:  LD   (IX+8),0xEB
01EB C9                 RET
01EC
01EC F3                 DI
01ED 2A4E1B             LD   HL,(lbl1B4E)
01F0 5E                 LD   E,(HL)
01F1 EB                 EX   DE,HL
01F2 CD6906             CALL lbl0669
01F5 ED534E1B           LD   (lbl1B4E),DE
01F9 D0                 RET  NC
01FA
01FA 210604             LD   HL,lbl0406
01FD 224E1B             LD   (lbl1B4E),HL
0200 C9       lbl0200:  RET
0201
0201 21621B             LD   HL,lbl1B62
0204 AF                 XOR  A
0205 BE                 CP   (HL)
0206 37                 SCF
0207 C8                 RET  Z
0208
0208 35                 DEC  (HL)
0209 23                 INC  HL
020A EF                 RST  0x28
020B 0A                 LD   A,(BC)
020C FE2E               CP   0x2E
020E 2003               JR   NZ,lbl0213-$
0210 23                 INC  HL
0211 50                 LD   D,B
0212 5E                 LD   E,(HL)
0213 B7       lbl0213:  OR   A
0214 C9                 RET
0215
0215 DD36483F           LD   (IX+72),0x3F
0219 CF                 RST  0x08
021A 21621B             LD   HL,lbl1B62
021D AF                 XOR  A
021E B6                 OR   (HL)
021F C8                 RET  Z
0220
0220 35                 DEC  (HL)
0221 23                 INC  HL
0222 EF                 RST  0x28
0223 0A                 LD   A,(BC)
0224 FE3A               CP   0x3A
0226 300C               JR   NC,lbl0234-$
0228 FE21               CP   0x21
022A 3016               JR   NC,lbl0242-$
022C FE13               CP   0x13
022E D0                 RET  NC
022F
022F FE11               CP   0x11
0231 3013               JR   NC,lbl0246-$
0233 C9                 RET
0234
0234 FE55     lbl0234:  CP   0x55
0236 D0                 RET  NC
0237
0237 FE40               CP   0x40
0239 300B               JR   NC,lbl0246-$
023B 217111   lbl023B:  LD   HL,lbl1171
023E 2F                 CPL
023F 00                 NOP
0240 B7                 OR   A
0241 C9                 RET
0242
0242 FE2E     lbl0242:  CP   0x2E
0244 38F5               JR   C,lbl023B-$
0246 59       lbl0246:  LD   E,C
0247 50                 LD   D,B
0248 C9                 RET
0249
0249 21621B             LD   HL,lbl1B62
024C 7E                 LD   A,(HL)
024D 3600               LD   (HL),0x00
024F 23                 INC  HL
0250 86                 ADD  A,(HL)
0251 E67F               AND  0x7F
0253 77                 LD   (HL),A
0254 CF                 RST  0x08
0255 A7                 AND  A
0256 F0                 RET  P
0257
0257 C680               ADD  A,0x80
0259 FE3A               CP   0x3A
025B F8                 RET  M
025C
025C C607               ADD  A,0x07
025E C9                 RET
025F
025F 2A521B             LD   HL,(lbl1B52)
0262 22501B             LD   (lbl1B50),HL
0265 210000             LD   HL,lbl0000
0268 DF                 RST  0x18
0269 CF                 RST  0x08
026A 3A081B             LD   A,(lbl1B08)
026D FEAB               CP   0xAB
026F 3E10     lbl026F:  LD   A,0x10
0271 D311               OUT  (port11),A
0273 DB11               IN   A,(port11)
0275 CB5F               BIT  3,A
0277 C9                 RET
0278
0278 F7                 RST  0x30
0279 1A                 LD   A,(DE)
027A 060A               LD   B,0x0A
027C CDFA05             CALL lbl05FA
027F CF                 RST  0x08
0280 210E1B             LD   HL,lbl1B0E
0283 46                 LD   B,(HL)
0284 CBC6               SET  0,(HL)
0286 CD6F02             CALL lbl026F
0289 C0                 RET  NZ
028A
028A 78                 LD   A,B
028B CB47               BIT  0,A
028D CB87               RES  0,A
028F 77                 LD   (HL),A
0290 D303               OUT  (port03),A
0292 C0                 RET  NZ
0293
0293 D7                 RST  0x10
0294 B9                 CP   C
0295 03                 INC  BC
0296 0F                 RRCA
0297 05                 DEC  B
0298 03                 INC  BC
0299 00                 NOP
029A 70                 LD   (HL),B
029B 03                 INC  BC
029C 15                 DEC  D
029D 05                 DEC  B
029E 2805               JR   Z,lbl02A5-$
02A0 80                 ADD  A,B
02A1 02                 LD   (BC),A
02A2 00                 NOP
02A3 05                 DEC  B
02A4 D5                 PUSH DE
02A5 04       lbl02A5:  INC  B
02A6 CF                 RST  0x08
02A7 05                 DEC  B
02A8 62                 LD   H,D
02A9 05                 DEC  B
02AA 61                 LD   H,C
02AB 04                 INC  B
02AC 92                 SUB  A,D
02AD 04                 INC  B
02AE 78                 LD   A,B
02AF 05                 DEC  B
02B0 AF                 XOR  A
02B1 03                 INC  BC
02B2 FB                 EI
02B3 02                 LD   (BC),A
02B4 5A                 LD   E,D
02B5 03                 INC  BC
02B6 92                 SUB  A,D
02B7 05                 DEC  B
02B8 59                 LD   E,C
02B9 00                 NOP
02BA 09                 ADD  HL,BC
02BB 00       lbl02BB:  NOP
02BC 01021A             LD   BC,lbl1A02
02BF 02                 LD   (BC),A
02C0 CDFF00             CALL lbl00FF
02C3 3E57               LD   A,0x57
02C5 D309               OUT  (port09),A
02C7 7E                 LD   A,(HL)
02C8 D309               OUT  (port09),A
02CA CF                 RST  0x08
02CB F7                 RST  0x30
02CC 1A                 LD   A,(DE)
02CD 1F                 RRA
02CE E7                 RST  0x20
02CF 2B                 DEC  HL
02D0 CBA6               RES  4,(HL)
02D2 D8                 RET  C
02D3
02D3 CBE6               SET  4,(HL)
02D5 CF                 RST  0x08
02D6 9F                 SBC  A,A
02D7 03                 INC  BC
02D8 24                 INC  H
02D9 00                 NOP
02DA D8                 RET  C
02DB
02DB 06D8               LD   B,0xD8
02DD 0615               LD   B,0x15
02DF 02                 LD   (BC),A
02E0 CDFF00             CALL lbl00FF
02E3 7E                 LD   A,(HL)
02E4 320C1B             LD   (lbl1B0C),A
02E7 E640               AND  0x40
02E9 21211B             LD   HL,lbl1B21
02EC CBCE               SET  1,(HL)
02EE 2802               JR   Z,lbl02F2-$
02F0 CB8E               RES  1,(HL)
02F2 211A1B   lbl02F2:  LD   HL,lbl1B1A
02F5 01130A             LD   BC,lbl0A13
02F8 EDB3               OTIR
02FA CF                 RST  0x08
02FB DD355A             DEC  (IX+90)
02FE C0                 RET  NZ
02FF
02FF D7                 RST  0x10
0300 D8       lbl0300:  RET  C
0301
0301 0600               LD   B,0x00
0303 04                 INC  B
0304 80                 ADD  A,B
0305 04                 INC  B
0306 0A                 LD   A,(BC)
0307 FF                 RST  0x38
0308 EB                 EX   DE,HL
0309 01A100             LD   BC,lbl00A1
030C 0B                 DEC  BC
030D 00                 NOP
030E 00                 NOP
030F 40                 LD   B,B
0310 03                 INC  BC
0311 57                 LD   D,A
0312 1003               DJNZ lbl0317-$
0314 03                 INC  BC
0315 A7                 AND  A
0316 14                 INC  D
0317 80       lbl0317:  ADD  A,B
0318 00                 NOP
0319 80                 ADD  A,B
031A 02                 LD   (BC),A
031B 3004               JR   NC,lbl0321-$
031D C403C1             CALL NZ,lblC103
0320 05                 DEC  B
0321 6E       lbl0321:  LD   L,(HL)
0322 011F04             LD   BC,lbl041F
0325 3003               JR   NC,lbl032A-$
0327 D9                 EXX
0328 05                 DEC  B
0329 EE01               XOR  0x01
032B 1F                 RRA
032C 06AA               LD   B,0xAA
032E 07                 RLCA
032F AA                 XOR  D
0330 B4                 OR   H
0331 07                 RLCA
0332 EB                 EX   DE,HL
0333 07                 RLCA
0334 94                 SUB  A,H
0335 07                 RLCA
0336 94                 SUB  A,H
0337 07                 RLCA
0338 CB07               RLC  A
033A F3                 DI
033B 04                 INC  B
033C DF                 RST  0x18
033D 07                 RLCA
033E DF                 RST  0x18
033F 07                 RLCA
0340 C8                 RET  Z
0341
0341 07                 RLCA
0342 C8                 RET  Z
0343
0343 07                 RLCA
0344 C8                 RET  Z
0345
0345 07                 RLCA
0346 FF                 RST  0x38
0347 06BB               LD   B,0xBB
0349 06D8               LD   B,0xD8
034B 06D8               LD   B,0xD8
034D 0654               LD   B,0x54
034F 03                 INC  BC
0350 00                 NOP
0351 1800               JR   lbl0353-$
0353 182E     lbl0353:  JR   lbl0383-$
0355 2E2E               LD   L,0x2E
0357 2E2E               LD   L,0x2E
0359 2ECD               LD   L,0xCD
035B 59                 LD   E,C
035C 00                 NOP
035D 3A0E1B             LD   A,(lbl1B0E)
0360 CB6E               BIT  5,(HL)
0362 215A1B             LD   HL,lbl1B5A
0365 200B               JR   NZ,lbl0372-$
0367 35                 DEC  (HL)
0368 C0                 RET  NZ
0369
0369 DDCB0EAE           RES  5,(IX+14)
036D CB6F               BIT  5,A
036F C0                 RET  NZ
0370
0370 34                 INC  (HL)
0371 D7                 RST  0x10
0372 CB6F     lbl0372:  BIT  5,A
0374 C0                 RET  NZ
0375
0375 3619               LD   (HL),0x19
0377 D7                 RST  0x10
0378 E7                 RST  0x20
0379 2B                 DEC  HL
037A 010021             LD   BC,lbl2100
037D CB76               BIT  6,(HL)
037F 2804               JR   Z,lbl0385-$
0381 CBB6               RES  6,(HL)
0383 CBE1     lbl0383:  SET  4,C
0385 CB6E     lbl0385:  BIT  5,(HL)
0387 2004               JR   NZ,lbl038D-$
0389 1E3D               LD   E,0x3D
038B CBC8               SET  1,B
038D FF       lbl038D:  RST  0x38
038E D7                 RST  0x10
038F E7                 RST  0x20
0390 CBCE               SET  1,(HL)
0392 115604             LD   DE,lbl0456
0395 3E80               LD   A,0x80
0397 AE                 XOR  (HL)
0398 77                 LD   (HL),A
0399 DD364CEF           LD   (IX+76),0xEF
039D B7                 OR   A
039E C9                 RET
039F
039F E7                 RST  0x20
03A0 CB8E               RES  1,(HL)
03A2 DD364CD8           LD   (IX+76),0xD8
03A6 CF                 RST  0x08
03A7 010026             LD   BC,lbl2600
03AA FF                 RST  0x38
03AB 113C04             LD   DE,lbl043C
03AE C9                 RET
03AF
03AF 210E1A             LD   HL,lbl1A0E
03B2 3E04               LD   A,0x04
03B4 AE                 XOR  (HL)
03B5 CB8F               RES  1,A
03B7 77                 LD   (HL),A
03B8 D7                 RST  0x10
03B9 E7                 RST  0x20
03BA 23                 INC  HL
03BB CBE6               SET  4,(HL)
03BD CDE404             CALL lbl04E4
03C0 DDCB0EC6           SET  0,(IX+14)
03C4 D7                 RST  0x10
03C5 010120             LD   BC,lbl2001
03C8 1803               JR   lbl03CD-$
03CA 010124             LD   BC,lbl2401
03CD FF       lbl03CD:  RST  0x38
03CE 110704             LD   DE,lbl0407
03D1 C9                 RET
03D2
03D2 010122             LD   BC,lbl2201
03D5 111604   lbl03D5:  LD   DE,lbl0416
03D8 FF                 RST  0x38
03D9 C9                 RET
03DA
03DA 010126             LD   BC,lbl2601
03DD 18F6               JR   lbl03D5-$
03DF CDFF00             CALL lbl00FF
03E2 7E                 LD   A,(HL)
03E3 23                 INC  HL
03E4 66                 LD   H,(HL)
03E5 6F                 LD   L,A
03E6 1802               JR   lbl03EA-$
03E8 E7                 RST  0x20
03E9 2B                 DEC  HL
03EA 56       lbl03EA:  LD   D,(HL)
03EB 23                 INC  HL
03EC 5E                 LD   E,(HL)
03ED 21651B             LD   HL,lbl1B65
03F0 01BB02             LD   BC,lbl02BB
03F3 E5                 PUSH HL
03F4 79       lbl03F4:  LD   A,C
03F5 72                 LD   (HL),D
03F6 ED67               RRD
03F8 23                 INC  HL
03F9 77                 LD   (HL),A
03FA 53                 LD   D,E
03FB 23                 INC  HL
03FC 10F6               DJNZ lbl03F4-$
03FE D1                 POP  DE
03FF 1A                 LD   A,(DE)
0400 0604               LD   B,0x04
0402 CDFA05             CALL lbl05FA
0405 CF                 RST  0x08
0406 DF       lbl0406:  RST  0x18
0407 DCCACB   lbl0407:  CALL C,lblCBCA
040A C8                 RET  Z
040B
040B D1                 POP  DE
040C 14                 INC  D
040D DB12               IN   A,(port12)
040F D8                 RET  C
0410
0410 CE14               ADC  A,0x14
0412 CE08               ADC  A,0x08
0414 D7                 RST  0x10
0415                    Unsupported code 0xDDDC at address 0x0415
0415
0415                    end
0415                    ;
0415                    ;Unprocessed binary code from input file
0415                    ;
0415 DDDCCB64 CACE23D1 6ED8CE
0420 6ED7DCDD D8CACE0A D2CBA0D1 23D0CF24
0430 D328DCCC CB00CDDA CCD9D7DD DCCADCDD
0440 D8CACB23 CE08D7D5 FFCB18D9 CB14D50F
0450 CAD9D6D9 CF40D4CD FF007E32 5A1B1137
0460 042A521B 22561B3A 061B325D 1BDD360A
0470 A1011101 3A021BA8 E6212806 3E07CDFA
0480 05CFDD66 0EFFCB44 21030322 0F1B207F
0490 1CD70110 AAED41ED 410CDB02 79DB02ED
04A0 78E60428 F5DB0279 DB02AFDB 023EC5D3
04B0 1121291B 7EF60377 D3113E80 D3112155
04C0 28220F1B 3A061B3D 1FB71FC6 06325A1B
04D0 DDCB0DDE D7E723CB A6F70101 21FF2A50
04E0 1B22581B DD3608AA DB003E73 D3113ED1
04F0 D311C908 D921C607 E5CD6A02 C038E9C9
0500 CD6A0230 0AE7B7DD 355ACBB6 C0CBF6F7
0510 1A325A1B D7CD6A02 CDE40438 03E118EF
0520 3FC0DD35 5AC018E7 1C1AFE40 E72B060C
0530 DB01DB10 10FA3E01 D311DB11 07077E17
0540 0F773A05 1B203ACB 4F2006CB 6E204238
0550 402A561B ED4B521B 22521BCD 4900ED42
0560 DF1CCDB3 053016B7 ED4AE728 04CB6E20
0570 0CCBAE7E 1F1F3F1D DDCB0E86 D7B71E4C
0580 C92323CB 5ECB9E30 132011CB 5F200DCB
0590 DE1DF71A F7E7B7CB 76C05FC9 2A581BED
05A0 4B501B22 501BCD49 0009DF1C E604C8E7
05B0 CBF6C92A 541BDD4E 060DAF47 03ED42C9
05C0 E7CB5EC0 CBC6DD36 30D51130 04180FE7
05D0 CB4628A2 CB76CCB3 053003F7 1A5FDB13
05E0 E604C82A 541B2BCB 7CC0DF2A 521B7ED3
05F0 1223CB8C 22521B18 E579E7CB 46C0CBDE
0600 FE2E2002 06012A17 1B4C261A 770CF72C
0610 CBFD1A61 22171BFB FE2EF328 0210E7DD
0620 3630B4DB 13E604C8 2A191B26 1A7ECD55
0630 02D3122C CBFDDD75 19DD3518 20E5C9E6
0640 7FDD3648 BBFE21F8 E1E12160 1B77FE55
0650 F0FE4130 1323EF02 FE3A3805 DD364872
0660 C9FE2E38 F72334C9 6F260029 247E2366
0670 6FE9E67F E1E12161 1BFE0828 29EF022B
0680 FE402826 FE2EC07E FE40C8FE 2A381E4F
0690 21631B7E 2B862BE6 7F77DD36 48BB5F50
06A0 1AB9C069 18C335CB BEC9BE20 D7DD3648
06B0 BB237EDD 9663E67F 2377C9E6 7FFE15F0
06C0 FE082815 FE10F82F CD6806E1 E1D87AE6
06D0 7F21611B EF022334 C9E1E12A 541B2BCB
06E0 7CC0DF2A 501B2BCB 5C201026 19180C2A
06F0 541B23DF 2A501B77 23CB8C22 501BC9F5
0700 E5D5C521 0C1B0E01 EDA30CED A30CEDA3
0710 0E08EDA3 EDA3CDC8 07F3E77E 57F6905F
0720 2A541BED 6A0122FC 09380FCB BB200BCB
0730 A32FE641 20047BE6 BE5FE773 CB4B2810
0740 7BE68007 07F6114F 06017BAA 07DCF905
0750 DB0347E6 244F3A02 1BE6D8B1 4F78E60A
0760 202A79F6 03CB4028 02E6BE4F 782FE624
0770 2812ED62 225E1BDD 7102FBCD EC01C1D1
0780 E1F11844 2A5E1B23 CB5428E8 21002022
0790 0D1B18DE F5E5D5C5 3A031BE6 0DDB1220
07A0 02D31221 7E07E52A 4C1BE52A 4A1BE52A
07B0 481B57E9 08D93A18 1BA72003 E7CB9EC4
07C0 28063E28 D313D908 FBED4D08 D921C607
07D0 E52A0A1B E908D9E7 CB46C4DE 0518E308
07E0 D921C607 E5DB102A 081BE908 D9DB1307
07F0 3E104FD3 13DC9006 18CCFFFF FFFFFFFF

I/O-port cross reference list:
port03  =03: 0290
port09  =09: 02C5 02C8
port10  =10: 00AE 00CE 00E4
port11  =11: 00DF 00E8 00F3 00FB 01B8 01BC 0271 0273
port12  =12: 040D

Memory cross reference list:
lbl0000 =0000: 0265
lbl0044 =0044: 003C
lbl0052 =0052: 004C
lbl0054 =0054: 0070
lbl005F =005F: 0000
lbl0078 =0078: 007A
lbl0082 =0082: 0087
lbl0091 =0091: 009F
lbl00A1 =00A1: 0309
lbl00C7 =00C7: 00AB
lbl00D4 =00D4: 00BA
lbl00D9 =00D9: 00CB
lbl00E8 =00E8: 00EF
lbl00F1 =00F1: 00EC
lbl00FF =00FF: 012A 02C0 02E0 03DF
lbl0102 =0102: 011E
lbl0108 =0108: 0114
lbl012A =012A: 017D
lbl0132 =0132: 010A
lbl01E7 =01E7: 01C2
lbl0200 =0200: 004E
lbl0213 =0213: 020E
lbl0234 =0234: 0226
lbl023B =023B: 0244
lbl0242 =0242: 022A
lbl0246 =0246: 0231 0239
lbl026F =026F: 0286
lbl02A5 =02A5: 029E
lbl02BB =02BB: 03F0
lbl02F2 =02F2: 0089 02EE
lbl0300 =0300: 006D
lbl0317 =0317: 0312
lbl0321 =0321: 031B
lbl032A =032A: 0325
lbl0353 =0353: 0351
lbl0372 =0372: 0365
lbl0383 =0383: 0353
lbl0385 =0385: 037F
lbl038D =038D: 0387
lbl03CD =03CD: 03C8
lbl03D5 =03D5: 03DD
lbl03EA =03EA: 03E6
lbl03F4 =03F4: 03FC
lbl0406 =0406: 01FA
lbl0407 =0407: 03CE
lbl0416 =0416: 03D5
lbl041F =041F: 0322
lbl0432 =0432: 0034
lbl043C =043C: 03AB
lbl0456 =0456: 0392
lbl04E4 =04E4: 03BD
lbl05FA =05FA: 027C 0402
lbl0669 =0669: 01F2
lbl0671 =0671: 009B
lbl0903 =0903: 016C
lbl0A13 =0A13: 02F5
lbl0C08 =0C08: 007C
lbl0C11 =0C11: 008C
lbl1171 =1171: 023B
lbl1A02 =1A02: 02BC
lbl1A0E =1A0E: 03AF
lbl1B00 =1B00: 0064 0098
lbl1B01 =1B01: 0117
lbl1B03 =1B03: 0020
lbl1B07 =1B07: 01E0
lbl1B08 =1B08: 026A
lbl1B0C =1B0C: 02E4
lbl1B0D =1B0D: 0044
lbl1B0E =1B0E: 0280 035D
lbl1B0F =1B0F: 007F
lbl1B1A =1B1A: 02F2
lbl1B21 =1B21: 02E9
lbl1B29 =1B29: 00F5
lbl1B4E =1B4E: 01ED 01F5 01FD
lbl1B50 =1B50: 00A2 0262
lbl1B52 =1B52: 025F
lbl1B54 =1B54: 0018 0054
lbl1B56 =1B56: 00A5 00B3
lbl1B58 =1B58: 01D6 01DD
lbl1B5A =1B5A: 0362
lbl1B5B =1B5B: 01B3 01CD 01D3
lbl1B5C =1B5C: 01C5
lbl1B62 =1B62: 0201 021A 0249
lbl1B65 =1B65: 03ED
lbl1B66 =1B66: 00FF
lbl1C00 =1C00: 005F
lbl2001 =2001: 03C5
lbl2100 =2100: 037A
lbl2201 =2201: 03D2
lbl2401 =2401: 03CA
lbl2600 =2600: 03A7
lbl2601 =2601: 03DA
lblC103 =C103: 031D
lblCBCA =CBCA: 0407
lblDA03 =DA03: 0166
