                        ;File generated by dasmZ80.jar Z80 disassembler from ..\src\test\resources\MemodyneM80.bin
                        ;
                        ;Memory addresses:
0054            lbl0054 EQU  0x0054
00A1            lbl00A1 EQU  0x00A1
0300            lbl0300 EQU  0x0300
041F            lbl041F EQU  0x041F
0456            lbl0456 EQU  0x0456
0A13            lbl0A13 EQU  0x0A13
0C08            lbl0C08 EQU  0x0C08
0C11            lbl0C11 EQU  0x0C11
1B00            lbl1B00 EQU  0x1B00
1B03            lbl1B03 EQU  0x1B03
1B0D            lbl1B0D EQU  0x1B0D
1B0F            lbl1B0F EQU  0x1B0F
1B1A            lbl1B1A EQU  0x1B1A
1B54            lbl1B54 EQU  0x1B54
1C00            lbl1C00 EQU  0x1C00
C103            lblC103 EQU  0xC103
                        ;
0000                    org 0x0000
0000                    No entry points defined; assuming 0x0000 as entry point
0000 185D     ep0000:   JR   lbl005F-$
0002                    ;
0008 C1       lbl0008:  POP  BC
0009 37                 SCF
000A C9                 RET
000B                    ;
0010 C1       lbl0010:  POP  BC
0011 F7                 RST  lbl0030
0012 C9                 RET
0013                    ;
0018 22541B   lbl0018:  LD   (lbl1B54),HL
001B C9                 RET
001C                    ;
0020 21031B   lbl0020:  LD   HL,lbl1B03
0023 C9                 RET
0024                    ;
0030 13       lbl0030:  INC  DE
0031 CBBB               RES  7,E
0033 C9                 RET
0034                    ;
0038 DDCB0266 lbl0038:  BIT  4,(IX+2)
003C 2806               JR   Z,lbl0044-$
003E CB21               SLA  C
0040 78                 LD   A,B
0041 EE04               XOR  0x04
0043 7F                 LD   A,A
0044 ED430D1B lbl0044:  LD   (lbl1B0D),BC
0048 C9                 RET
0049                    ;
005F 31001C   lbl005F:  LD   SP,lbl1C00
0062 ED5E               IM   2
0064 11001B             LD   DE,lbl1B00
0067 7A                 LD   A,D
0068 ED47               LD   I,A
006A D5                 PUSH DE
006B DDE1               POP  IX
006D 210003             LD   HL,lbl0300
0070 015400             LD   BC,lbl0054
0073 EDB0               LDIR
0075 AF                 XOR  A
0076 06AC               LD   B,0xAC
0078 12       lbl0078:  LD   (DE),A
0079 13                 INC  DE
007A 10FC               DJNZ lbl0078-$
007C 01080C             LD   BC,lbl0C08
007F 210F1B             LD   HL,lbl1B0F
0082 EDA3     lbl0082:  OUTI
0084 EDA3               OUTI
0086 0C                 INC  C
0087 10F9               DJNZ lbl0082-$
0089 CDF202             CALL lbl02F2
008C 01110C             LD   BC,lbl0C11
008F EDB3               OTIR
0091 E7       lbl0091:  RST  lbl0020
0092 23                 INC  HL
0093 F3                 DI
0094 CB7E               BIT  7,(HL)
0096 CBBE               RES  7,(HL)
0098 2A001B             LD   HL,(lbl1B00)
009B C47106             CALL NZ,lbl0671
009E FB                 EI
009F 18F0               JR   lbl0091-$
00A1          lbl00A1:  ;
02F2 211A1B   lbl02F2:  LD   HL,lbl1B1A
02F5 01130A             LD   BC,lbl0A13
02F8 EDB3               OTIR
02FA CF                 RST  lbl0008
02FB DD355A             DEC  (IX+90)
02FE C0                 RET  NZ
02FF D7                 RST  lbl0010
0300 D8       lbl0300:  RET  C
0301 0600               LD   B,0x00
0303 04                 INC  B
0304 80                 ADD  A,B
0305 04                 INC  B
0306 0A                 LD   A,(BC)
0307 FF                 RST  lbl0038
0308 EB                 EX   DE,HL
0309 01A100             LD   BC,lbl00A1
030C 0B                 DEC  BC
030D 00                 NOP
030E 00                 NOP
030F 40                 LD   B,B
0310 03                 INC  BC
0311 57                 LD   D,A
0312 1003               DJNZ lbl0317-$
0314 03                 INC  BC
0315 A7                 AND  A
0316 14                 INC  D
0317 80       lbl0317:  ADD  A,B
0318 00                 NOP
0319 80                 ADD  A,B
031A 02                 LD   (BC),A
031B 3004               JR   NC,lbl0321-$
031D C403C1             CALL NZ,lblC103
0320 05                 DEC  B
0321 6E       lbl0321:  LD   L,(HL)
0322 011F04             LD   BC,lbl041F
0325 3003               JR   NC,lbl032A-$
0327 D9                 EXX
0328 05                 DEC  B
0329 EE01               XOR  0x01
032B 1F                 RRA
032C 06AA               LD   B,0xAA
032E 07                 RLCA
032F AA                 XOR  D
0330 B4                 OR   H
0331 07                 RLCA
0332 EB                 EX   DE,HL
0333 07                 RLCA
0334 94                 SUB  A,H
0335 07                 RLCA
0336 94                 SUB  A,H
0337 07                 RLCA
0338 CB07               RLC  A
033A F3                 DI
033B 04                 INC  B
033C DF                 RST  lbl0018
033D 07                 RLCA
033E DF                 RST  lbl0018
033F 07                 RLCA
0340 C8                 RET  Z
0341 07                 RLCA
0342 C8                 RET  Z
0343 07                 RLCA
0344 C8                 RET  Z
0345 07                 RLCA
0346 FF                 RST  lbl0038
0347 06BB               LD   B,0xBB
0349 06D8               LD   B,0xD8
034B 06D8               LD   B,0xD8
034D 0654               LD   B,0x54
034F 03                 INC  BC
0350 00                 NOP
0351 1800               JR   lbl0353-$
0353                    ;
0353 182E     lbl0353:  JR   lbl0383-$
0355                    ;
0383 CBE1     lbl0383:  SET  4,C
0385 CB6E               BIT  5,(HL)
0387 2004               JR   NZ,lbl038D-$
0389 1E3D               LD   E,0x3D
038B CBC8               SET  1,B
038D FF       lbl038D:  RST  lbl0038
038E D7                 RST  lbl0010
038F E7                 RST  lbl0020
0390 CBCE               SET  1,(HL)
0392 115604             LD   DE,lbl0456
0395 3E80               LD   A,0x80
0397 AE                 XOR  (HL)
0398 77                 LD   (HL),A
0399 DD364CEF           LD   (IX+76),0xEF
039D B7                 OR   A
039E C9                 RET
039F                    ;
0671 E9       lbl0671:  JP   (HL)
0672                    ;
0672                    end

Memory address cross reference list:
ep0000  =0000:
lbl0008 =0008: 02FA
lbl0010 =0010: 02FF 038E
lbl0018 =0018: 033C 033E
lbl0020 =0020: 0091 038F
lbl0030 =0030: 0011
lbl0038 =0038: 0307 0346 038D
lbl0044 =0044: 003C
lbl0054 =0054: 0070
lbl005F =005F: 0000
lbl0078 =0078: 007A
lbl0082 =0082: 0087
lbl0091 =0091: 009F
lbl00A1 =00A1: 0309
lbl02F2 =02F2: 0089
lbl0300 =0300: 006D
lbl0317 =0317: 0312
lbl0321 =0321: 031B
lbl032A =032A: 0325
lbl0353 =0353: 0351
lbl0383 =0383: 0353
lbl038D =038D: 0387
lbl041F =041F: 0322
lbl0456 =0456: 0392
lbl0671 =0671: 009B
lbl0A13 =0A13: 02F5
lbl0C08 =0C08: 007C
lbl0C11 =0C11: 008C
lbl1B00 =1B00: 0064 0098
lbl1B03 =1B03: 0020
lbl1B0D =1B0D: 0044
lbl1B0F =1B0F: 007F
lbl1B1A =1B1A: 02F2
lbl1B54 =1B54: 0018
lbl1C00 =1C00: 005F
lblC103 =C103: 031D
